; ModuleID = 'source-C-CXX/3/1135.cpp'
source_filename = "source-C-CXX/3/1135.cpp"
target datalayout = "e-m:e-p270:32:32-p271:32:32-p272:64:64-i64:64-f80:128-n8:16:32:64-S128"
target triple = "x86_64-pc-linux-gnu"

%"class.std::ios_base::Init" = type { i8 }
%"class.std::basic_istream" = type { i32 (...)**, i64, %"class.std::basic_ios" }
%"class.std::basic_ios" = type { %"class.std::ios_base", %"class.std::basic_ostream"*, i8, i8, %"class.std::basic_streambuf"*, %"class.std::ctype"*, %"class.std::num_put"*, %"class.std::num_get"* }
%"class.std::ios_base" = type { i32 (...)**, i64, i64, i32, i32, i32, %"struct.std::ios_base::_Callback_list"*, %"struct.std::ios_base::_Words", [8 x %"struct.std::ios_base::_Words"], i32, %"struct.std::ios_base::_Words"*, %"class.std::locale" }
%"struct.std::ios_base::_Callback_list" = type { %"struct.std::ios_base::_Callback_list"*, void (i32, %"class.std::ios_base"*, i32)*, i32, i32 }
%"struct.std::ios_base::_Words" = type { i8*, i64 }
%"class.std::locale" = type { %"class.std::locale::_Impl"* }
%"class.std::locale::_Impl" = type { i32, %"class.std::locale::facet"**, i64, %"class.std::locale::facet"**, i8** }
%"class.std::locale::facet" = type <{ i32 (...)**, i32, [4 x i8] }>
%"class.std::basic_ostream" = type { i32 (...)**, %"class.std::basic_ios" }
%"class.std::basic_streambuf" = type { i32 (...)**, i8*, i8*, i8*, i8*, i8*, i8*, %"class.std::locale" }
%"class.std::ctype" = type <{ %"class.std::locale::facet.base", [4 x i8], %struct.__locale_struct*, i8, [7 x i8], i32*, i32*, i16*, i8, [256 x i8], [256 x i8], i8, [6 x i8] }>
%"class.std::locale::facet.base" = type <{ i32 (...)**, i32 }>
%struct.__locale_struct = type { [13 x %struct.__locale_data*], i16*, i32*, i32*, [13 x i8*] }
%struct.__locale_data = type opaque
%"class.std::num_put" = type { %"class.std::locale::facet.base", [4 x i8] }
%"class.std::num_get" = type { %"class.std::locale::facet.base", [4 x i8] }

@_ZStL8__ioinit = internal global %"class.std::ios_base::Init" zeroinitializer, align 1
@__dso_handle = external hidden global i8
@_ZSt3cin = external global %"class.std::basic_istream", align 8
@_ZSt4cout = external global %"class.std::basic_ostream", align 8
@.str = private unnamed_addr constant [2 x i8] c"\0A\00", align 1
@llvm.global_ctors = appending global [1 x { i32, void ()*, i8* }] [{ i32, void ()*, i8* } { i32 65535, void ()* @_GLOBAL__sub_I_1135.cpp, i8* null }]

declare void @_ZNSt8ios_base4InitC1Ev(%"class.std::ios_base::Init"* nonnull align 1 dereferenceable(1)) unnamed_addr #0

; Function Attrs: nounwind
declare void @_ZNSt8ios_base4InitD1Ev(%"class.std::ios_base::Init"* nonnull align 1 dereferenceable(1)) unnamed_addr #1

; Function Attrs: nofree nounwind
declare i32 @__cxa_atexit(void (i8*)*, i8*, i8*) local_unnamed_addr #2

; Function Attrs: mustprogress norecurse sspstrong uwtable
define dso_local i32 @main() local_unnamed_addr #3 {
  %1 = alloca i32, align 4
  %2 = alloca i32, align 4
  %3 = bitcast i32* %1 to i8*
  call void @llvm.lifetime.start.p0i8(i64 4, i8* nonnull %3) #7
  %4 = bitcast i32* %2 to i8*
  call void @llvm.lifetime.start.p0i8(i64 4, i8* nonnull %4) #7
  %5 = call nonnull align 8 dereferenceable(16) %"class.std::basic_istream"* @_ZNSirsERi(%"class.std::basic_istream"* nonnull align 8 dereferenceable(16) @_ZSt3cin, i32* nonnull align 4 dereferenceable(4) %1)
  %6 = call nonnull align 8 dereferenceable(16) %"class.std::basic_istream"* @_ZNSirsERi(%"class.std::basic_istream"* nonnull align 8 dereferenceable(16) %5, i32* nonnull align 4 dereferenceable(4) %2)
  %7 = load i32, i32* %1, align 4, !tbaa !5
  %8 = zext i32 %7 to i64
  %9 = load i32, i32* %2, align 4, !tbaa !5
  %10 = zext i32 %9 to i64
  %11 = call i8* @llvm.stacksave()
  %12 = mul nuw i64 %10, %8
  %13 = alloca i32, i64 %12, align 16
  %14 = load i32, i32* %1, align 4, !tbaa !5
  %15 = icmp sgt i32 %14, 0
  br i1 %15, label %16, label %99

16:                                               ; preds = %0
  %17 = load i32, i32* %2, align 4, !tbaa !5
  %18 = icmp sgt i32 %17, 0
  br i1 %18, label %19, label %27

19:                                               ; preds = %16, %32
  %20 = phi i32 [ %33, %32 ], [ %14, %16 ]
  %21 = phi i32 [ %34, %32 ], [ %17, %16 ]
  %22 = phi i64 [ %35, %32 ], [ 0, %16 ]
  %23 = mul nuw nsw i64 %22, %10
  %24 = icmp sgt i32 %21, 0
  br i1 %24, label %38, label %32

25:                                               ; preds = %32
  %26 = icmp sgt i32 %33, 0
  br i1 %26, label %27, label %99

27:                                               ; preds = %16, %25
  %28 = phi i32 [ %33, %25 ], [ %14, %16 ]
  %29 = load i32, i32* %2, align 4, !tbaa !5
  br label %47

30:                                               ; preds = %38
  %31 = load i32, i32* %1, align 4, !tbaa !5
  br label %32

32:                                               ; preds = %30, %19
  %33 = phi i32 [ %31, %30 ], [ %20, %19 ]
  %34 = phi i32 [ %44, %30 ], [ %21, %19 ]
  %35 = add nuw nsw i64 %22, 1
  %36 = sext i32 %33 to i64
  %37 = icmp slt i64 %35, %36
  br i1 %37, label %19, label %25, !llvm.loop !9

38:                                               ; preds = %19, %38
  %39 = phi i64 [ %43, %38 ], [ 0, %19 ]
  %40 = add nuw nsw i64 %23, %39
  %41 = getelementptr inbounds i32, i32* %13, i64 %40
  %42 = call nonnull align 8 dereferenceable(16) %"class.std::basic_istream"* @_ZNSirsERi(%"class.std::basic_istream"* nonnull align 8 dereferenceable(16) @_ZSt3cin, i32* nonnull align 4 dereferenceable(4) %41)
  %43 = add nuw nsw i64 %39, 1
  %44 = load i32, i32* %2, align 4, !tbaa !5
  %45 = sext i32 %44 to i64
  %46 = icmp slt i64 %43, %45
  br i1 %46, label %38, label %30, !llvm.loop !12

47:                                               ; preds = %27, %90
  %48 = phi i32 [ %28, %27 ], [ %91, %90 ]
  %49 = phi i32 [ %29, %27 ], [ %92, %90 ]
  %50 = phi i32 [ %29, %27 ], [ %93, %90 ]
  %51 = phi i64 [ 0, %27 ], [ %98, %90 ]
  %52 = phi i32 [ 0, %27 ], [ %95, %90 ]
  %53 = phi i32 [ 0, %27 ], [ %96, %90 ]
  %54 = icmp slt i32 %52, %50
  br i1 %54, label %55, label %90

55:                                               ; preds = %47, %67
  %56 = phi i32 [ %68, %67 ], [ %48, %47 ]
  %57 = phi i32 [ %69, %67 ], [ %49, %47 ]
  %58 = phi i32 [ %70, %67 ], [ %48, %47 ]
  %59 = phi i32 [ %71, %67 ], [ %52, %47 ]
  %60 = icmp slt i32 %53, %58
  %61 = icmp sgt i32 %59, -1
  %62 = select i1 %60, i1 %61, i1 false
  br i1 %62, label %63, label %67

63:                                               ; preds = %55
  %64 = zext i32 %59 to i64
  br label %73

65:                                               ; preds = %73
  %66 = load i32, i32* %2, align 4, !tbaa !5
  br label %67

67:                                               ; preds = %65, %55
  %68 = phi i32 [ %83, %65 ], [ %56, %55 ]
  %69 = phi i32 [ %66, %65 ], [ %57, %55 ]
  %70 = phi i32 [ %83, %65 ], [ %58, %55 ]
  %71 = add nsw i32 %59, 1
  %72 = icmp slt i32 %71, %69
  br i1 %72, label %55, label %90, !llvm.loop !13

73:                                               ; preds = %63, %73
  %74 = phi i64 [ %51, %63 ], [ %82, %73 ]
  %75 = phi i64 [ %64, %63 ], [ %89, %73 ]
  %76 = mul nuw nsw i64 %74, %10
  %77 = add nuw nsw i64 %76, %75
  %78 = getelementptr inbounds i32, i32* %13, i64 %77
  %79 = load i32, i32* %78, align 4, !tbaa !5
  %80 = call nonnull align 8 dereferenceable(8) %"class.std::basic_ostream"* @_ZNSolsEi(%"class.std::basic_ostream"* nonnull align 8 dereferenceable(8) @_ZSt4cout, i32 %79)
  %81 = call nonnull align 8 dereferenceable(8) %"class.std::basic_ostream"* @_ZSt16__ostream_insertIcSt11char_traitsIcEERSt13basic_ostreamIT_T0_ES6_PKS3_l(%"class.std::basic_ostream"* nonnull align 8 dereferenceable(8) %80, i8* nonnull getelementptr inbounds ([2 x i8], [2 x i8]* @.str, i64 0, i64 0), i64 1)
  %82 = add nuw nsw i64 %74, 1
  %83 = load i32, i32* %1, align 4, !tbaa !5
  %84 = trunc i64 %82 to i32
  %85 = icmp sgt i32 %83, %84
  %86 = trunc i64 %75 to i32
  %87 = icmp sgt i32 %86, 0
  %88 = select i1 %85, i1 %87, i1 false
  %89 = add nsw i64 %75, -1
  br i1 %88, label %73, label %65, !llvm.loop !14

90:                                               ; preds = %67, %47
  %91 = phi i32 [ %48, %47 ], [ %68, %67 ]
  %92 = phi i32 [ %49, %47 ], [ %69, %67 ]
  %93 = phi i32 [ %50, %47 ], [ %69, %67 ]
  %94 = phi i32 [ %52, %47 ], [ %71, %67 ]
  %95 = add nsw i32 %94, -1
  %96 = add nuw nsw i32 %53, 1
  %97 = icmp slt i32 %96, %91
  %98 = add nuw nsw i64 %51, 1
  br i1 %97, label %47, label %99, !llvm.loop !15

99:                                               ; preds = %90, %0, %25
  call void @llvm.stackrestore(i8* %11)
  call void @llvm.lifetime.end.p0i8(i64 4, i8* nonnull %4) #7
  call void @llvm.lifetime.end.p0i8(i64 4, i8* nonnull %3) #7
  ret i32 0
}

; Function Attrs: argmemonly mustprogress nofree nosync nounwind willreturn
declare void @llvm.lifetime.start.p0i8(i64 immarg, i8* nocapture) #4

declare nonnull align 8 dereferenceable(16) %"class.std::basic_istream"* @_ZNSirsERi(%"class.std::basic_istream"* nonnull align 8 dereferenceable(16), i32* nonnull align 4 dereferenceable(4)) local_unnamed_addr #0

; Function Attrs: mustprogress nofree nosync nounwind willreturn
declare i8* @llvm.stacksave() #5

; Function Attrs: argmemonly mustprogress nofree nosync nounwind willreturn
declare void @llvm.lifetime.end.p0i8(i64 immarg, i8* nocapture) #4

declare nonnull align 8 dereferenceable(8) %"class.std::basic_ostream"* @_ZNSolsEi(%"class.std::basic_ostream"* nonnull align 8 dereferenceable(8), i32) local_unnamed_addr #0

; Function Attrs: mustprogress nofree nosync nounwind willreturn
declare void @llvm.stackrestore(i8*) #5

declare nonnull align 8 dereferenceable(8) %"class.std::basic_ostream"* @_ZSt16__ostream_insertIcSt11char_traitsIcEERSt13basic_ostreamIT_T0_ES6_PKS3_l(%"class.std::basic_ostream"* nonnull align 8 dereferenceable(8), i8*, i64) local_unnamed_addr #0

; Function Attrs: sspstrong uwtable
define internal void @_GLOBAL__sub_I_1135.cpp() #6 section ".text.startup" {
  tail call void @_ZNSt8ios_base4InitC1Ev(%"class.std::ios_base::Init"* nonnull align 1 dereferenceable(1) @_ZStL8__ioinit)
  %1 = tail call i32 @__cxa_atexit(void (i8*)* bitcast (void (%"class.std::ios_base::Init"*)* @_ZNSt8ios_base4InitD1Ev to void (i8*)*), i8* getelementptr inbounds (%"class.std::ios_base::Init", %"class.std::ios_base::Init"* @_ZStL8__ioinit, i64 0, i32 0), i8* nonnull @__dso_handle) #7
  ret void
}


!llvm.module.flags = !{!0, !1, !2, !3}
!llvm.ident = !{!4}

!0 = !{i32 1, !"wchar_size", i32 4}
!1 = !{i32 7, !"PIC Level", i32 2}
!2 = !{i32 7, !"PIE Level", i32 2}
!3 = !{i32 7, !"uwtable", i32 1}
!4 = !{!"clang version 13.0.0"}
!5 = !{!6, !6, i64 0}
!6 = !{!"int", !7, i64 0}
!7 = !{!"omnipotent char", !8, i64 0}
!8 = !{!"Simple C++ TBAA"}
!9 = distinct !{!9, !10, !11}
!10 = !{!"llvm.loop.mustprogress"}
!11 = !{!"llvm.loop.unswitch.partial.disable"}
!12 = distinct !{!12, !10}
!13 = distinct !{!13, !10}
!14 = distinct !{!14, !10}
!15 = distinct !{!15, !10}
